target datalayout = "e-m:e-p270:32:32-p271:32:32-p272:64:64-i64:64-i128:128-f80:128-n8:16:32:64-S128"
target triple = "x86_64-pc-linux-gnu"

%struct.__jmp_buf_tag = type { [8 x i64], i32, %struct.__sigset_t }
%struct.__sigset_t = type { [16 x i64] }

@awaitedLock = internal global ptr null, align 8
@awaitedOwner = internal global ptr null, align 8
@.str.35 = private unnamed_addr constant [8 x i8] c"waiting\00", align 1
@PG_exception_stack = external global ptr, align 8
@error_context_stack = external global ptr, align 8

; Function Attrs: nounwind uwtable
define internal i32 @WaitOnLock(ptr noundef %0, ptr noundef %1) #0 {
  %3 = alloca ptr, align 8
  %4 = alloca ptr, align 8
  %5 = alloca i32, align 4
  %6 = alloca ptr, align 8
  %7 = alloca ptr, align 8
  %8 = alloca [1 x %struct.__jmp_buf_tag], align 16
  %9 = alloca i8, align 1
  store ptr %0, ptr %3, align 8
  store ptr %1, ptr %4, align 8
  call void @llvm.lifetime.start.p0(i64 4, ptr %5) #9
  br label %10

10:                                               ; preds = %2
  br label %11

11:                                               ; preds = %10
  br label %12

12:                                               ; preds = %11
  call void @set_ps_display_suffix(ptr noundef @.str.35)
  %13 = load ptr, ptr %3, align 8
  store ptr %13, ptr @awaitedLock, align 8
  %14 = load ptr, ptr %4, align 8
  store ptr %14, ptr @awaitedOwner, align 8
  br label %15

15:                                               ; preds = %12
  call void @llvm.lifetime.start.p0(i64 8, ptr %6) #9
  %16 = load ptr, ptr @PG_exception_stack, align 8
  store ptr %16, ptr %6, align 8
  call void @llvm.lifetime.start.p0(i64 8, ptr %7) #9
  %17 = load ptr, ptr @error_context_stack, align 8
  store ptr %17, ptr %7, align 8
  call void @llvm.lifetime.start.p0(i64 200, ptr %8) #9
  call void @llvm.lifetime.start.p0(i64 1, ptr %9) #9
  store i8 0, ptr %9, align 1
  %18 = getelementptr inbounds [1 x %struct.__jmp_buf_tag], ptr %8, i64 0, i64 0
  %19 = call i32 @__sigsetjmp(ptr noundef %18, i32 noundef 0) #12
  %20 = icmp eq i32 %19, 0
  br i1 %20, label %21, label %24

21:                                               ; preds = %15
  store ptr %8, ptr @PG_exception_stack, align 8
  %22 = load ptr, ptr %3, align 8
  %23 = call i32 @ProcSleep(ptr noundef %22)
  store i32 %23, ptr %5, align 4
  br label %27

24:                                               ; preds = %15
  %25 = load ptr, ptr %6, align 8
  store ptr %25, ptr @PG_exception_stack, align 8
  %26 = load ptr, ptr %7, align 8
  store ptr %26, ptr @error_context_stack, align 8
  call void @set_ps_display_remove_suffix()
  call void @pg_re_throw() #11
  unreachable

27:                                               ; preds = %21
  %28 = load i8, ptr %9, align 1, !range !4, !noundef !5
  %29 = trunc i8 %28 to i1
  br i1 %29, label %30, label %31

30:                                               ; preds = %27
  call void @pg_re_throw() #11
  unreachable

31:                                               ; preds = %27
  %32 = load ptr, ptr %6, align 8
  store ptr %32, ptr @PG_exception_stack, align 8
  %33 = load ptr, ptr %7, align 8
  store ptr %33, ptr @error_context_stack, align 8
  call void @llvm.lifetime.end.p0(i64 1, ptr %9) #9
  call void @llvm.lifetime.end.p0(i64 200, ptr %8) #9
  call void @llvm.lifetime.end.p0(i64 8, ptr %7) #9
  call void @llvm.lifetime.end.p0(i64 8, ptr %6) #9
  br label %34

34:                                               ; preds = %31
  br label %35

35:                                               ; preds = %34
  store ptr null, ptr @awaitedLock, align 8
  call void @set_ps_display_remove_suffix()
  br label %36

36:                                               ; preds = %35
  br label %37

37:                                               ; preds = %36
  br label %38

38:                                               ; preds = %37
  %39 = load i32, ptr %5, align 4
  call void @llvm.lifetime.end.p0(i64 4, ptr %5) #9
  ret i32 %39
}