; Function Attrs: nounwind uwtable
define internal fastcc i32 @WaitOnLock(ptr noundef %0, ptr noundef %1) unnamed_addr #0 {
  %3 = alloca [1 x %struct.__jmp_buf_tag], align 16
  call void @set_ps_display_suffix(ptr noundef nonnull @.str.35) #17
  store ptr %0, ptr @awaitedLock, align 8
  store ptr %1, ptr @awaitedOwner, align 8
  %4 = load ptr, ptr @PG_exception_stack, align 8
  %5 = load ptr, ptr @error_context_stack, align 8
  call void @llvm.lifetime.start.p0(i64 200, ptr nonnull %3) #17
  %6 = call i32 @__sigsetjmp(ptr noundef nonnull %3, i32 noundef 0) #20
  %7 = icmp eq i32 %6, 0
  br i1 %7, label %8, label %10

8:                                                ; preds = %2
  store ptr %3, ptr @PG_exception_stack, align 8
  %9 = call i32 @ProcSleep(ptr noundef %0) #17
  store ptr %4, ptr @PG_exception_stack, align 8
  store ptr %5, ptr @error_context_stack, align 8
  call void @llvm.lifetime.end.p0(i64 200, ptr nonnull %3) #17
  store ptr null, ptr @awaitedLock, align 8
  call void @set_ps_display_remove_suffix() #17
  ret i32 %9

10:                                               ; preds = %2
  store ptr %4, ptr @PG_exception_stack, align 8
  store ptr %5, ptr @error_context_stack, align 8
  call void @set_ps_display_remove_suffix() #17
  call void @pg_re_throw() #19
  unreachable
}